target datalayout = "e-m:e-p270:32:32-p271:32:32-p272:64:64-i64:64-i128:128-f80:128-n8:16:32:64-S128"
target triple = "x86_64-pc-linux-gnu"

%struct.quic_cid = type { i8, [20 x i8], [16 x i8], i8, i64, i64 }

; Function Attrs: alwaysinline nounwind
define internal ptr @memcpy.inline(ptr noalias %0, ptr noalias %1, i64 %2) #10 {
  %4 = alloca ptr, align 8
  %5 = alloca ptr, align 8
  %6 = alloca i64, align 8
  store ptr %0, ptr %4, align 8
  store ptr %1, ptr %5, align 8
  store i64 %2, ptr %6, align 8
  %7 = load ptr, ptr %4, align 8
  %8 = load ptr, ptr %5, align 8
  %9 = load i64, ptr %6, align 8
  %10 = load ptr, ptr %4, align 8
  %11 = call i64 @llvm.objectsize.i64.p0(ptr %10, i1 false, i1 true, i1 true)
  %12 = call ptr @__memcpy_chk(ptr noundef %7, ptr noundef %8, i64 noundef %9, i64 noundef %11) #15
  ret ptr %12
}

; Function Attrs: alwaysinline nounwind
define internal ptr @memset.inline(ptr %0, i32 %1, i64 %2) #10 {
  %4 = alloca ptr, align 8
  %5 = alloca i32, align 4
  %6 = alloca i64, align 8
  store ptr %0, ptr %4, align 8
  store i32 %1, ptr %5, align 4
  store i64 %2, ptr %6, align 8
  %7 = load ptr, ptr %4, align 8
  %8 = load i32, ptr %5, align 4
  %9 = load i64, ptr %6, align 8
  %10 = load ptr, ptr %4, align 8
  %11 = call i64 @llvm.objectsize.i64.p0(ptr %10, i1 false, i1 true, i1 true)
  %12 = call ptr @__memset_chk(ptr noundef %7, i32 noundef %8, i64 noundef %9, i64 noundef %11) #15
  ret ptr %12
}

; Function Attrs: null_pointer_is_valid sspstrong uwtable
define internal i32 @http3_conn_info_hash(ptr noundef %0) #0 {
  %2 = alloca ptr, align 8
  %3 = alloca [20 x i8], align 16
  %4 = alloca ptr, align 8
  %5 = alloca i32, align 4
  store ptr %0, ptr %2, align 8
  call void @llvm.lifetime.start.p0(i64 20, ptr %3) #15
  call void @llvm.lifetime.start.p0(i64 8, ptr %4) #15
  call void @llvm.lifetime.start.p0(i64 4, ptr %5) #15
  store i32 0, ptr %5, align 4
  %6 = load ptr, ptr %2, align 8
  %7 = icmp ne ptr %6, null
  br i1 %7, label %8, label %33

8:                                                ; preds = %1
  %9 = load ptr, ptr %2, align 8
  store ptr %9, ptr %4, align 8
  %10 = getelementptr [20 x i8], ptr %3, i64 0, i64 0
  %11 = call ptr @memset.inline(ptr noundef %10, i32 noundef 0, i64 noundef 20) #15
  %12 = getelementptr [20 x i8], ptr %3, i64 0, i64 0
  %13 = load ptr, ptr %4, align 8
  %14 = getelementptr inbounds nuw %struct.quic_cid, ptr %13, i32 0, i32 1
  %15 = getelementptr [20 x i8], ptr %14, i64 0, i64 0
  %16 = load ptr, ptr %4, align 8
  %17 = getelementptr inbounds nuw %struct.quic_cid, ptr %16, i32 0, i32 0
  %18 = load i8, ptr %17, align 8
  %19 = zext i8 %18 to i32
  %20 = icmp slt i32 %19, 20
  br i1 %20, label %21, label %26

21:                                               ; preds = %8
  %22 = load ptr, ptr %4, align 8
  %23 = getelementptr inbounds nuw %struct.quic_cid, ptr %22, i32 0, i32 0
  %24 = load i8, ptr %23, align 8
  %25 = zext i8 %24 to i32
  br label %27

26:                                               ; preds = %8
  br label %27

27:                                               ; preds = %26, %21
  %28 = phi i32 [ %25, %21 ], [ 20, %26 ]
  %29 = sext i32 %28 to i64
  %30 = call ptr @memcpy.inline(ptr noundef %12, ptr noundef %15, i64 noundef %29) #15
  %31 = getelementptr [20 x i8], ptr %3, i64 0, i64 0
  %32 = call i32 @wmem_strong_hash(ptr noundef %31, i64 noundef 20)
  store i32 %32, ptr %5, align 4
  br label %33

33:                                               ; preds = %27, %1
  %34 = load i32, ptr %5, align 4
  call void @llvm.lifetime.end.p0(i64 4, ptr %5) #15
  call void @llvm.lifetime.end.p0(i64 8, ptr %4) #15
  call void @llvm.lifetime.end.p0(i64 20, ptr %3) #15
  ret i32 %34
}