; Function Attrs: null_pointer_is_valid sspstrong uwtable
define internal i32 @http3_conn_info_hash(ptr noundef readonly captures(address_is_null) %0) #0 {
  %2 = alloca [20 x i8], align 16
  call void @llvm.lifetime.start.p0(i64 20, ptr nonnull %2) #15
  %.not = icmp eq ptr %0, null
  br i1 %.not, label %8, label %3

3:                                                ; preds = %1
  call void @llvm.memset.p0.i64(ptr noundef nonnull align 16 dereferenceable(20) %2, i8 noundef 0, i64 noundef 20, i1 noundef false) #15
  %4 = getelementptr inbounds nuw i8, ptr %0, i64 1
  %5 = load i8, ptr %0, align 8
  %narrow = tail call i8 @llvm.umin.i8(i8 %5, i8 20)
  %spec.select = zext nneg i8 %narrow to i64
  %6 = call ptr @__memcpy_chk(ptr noundef nonnull %2, ptr noundef nonnull %4, i64 noundef range(i64 0, 21) %spec.select, i64 noundef 20) #15, !alias.scope !14
  %7 = call i32 @wmem_strong_hash(ptr noundef nonnull %2, i64 noundef 20)
  br label %8

8:                                                ; preds = %3, %1
  %.0 = phi i32 [ %7, %3 ], [ 0, %1 ]
  call void @llvm.lifetime.end.p0(i64 20, ptr nonnull %2) #15
  ret i32 %.0
}